; Function Attrs: nounwind uwtable
define internal noundef i32 @f2(double %0, ptr noundef %1, ptr noundef %2, ptr readnone captures(none) %3) #0 {
  %5 = tail call ptr @N_VGetArrayPointer(ptr noundef %1) #9
  %6 = tail call ptr @N_VGetArrayPointer(ptr noundef %2) #9
  br label %.preheader

.preheader:                                       ; preds = %4, %.split.us
  %.02024 = phi i64 [ 0, %4 ], [ %32, %.split.us ]
  %7 = mul nuw nsw i64 %.02024, 5
  %.not22 = icmp eq i64 %.02024, 0
  br i1 %.not22, label %.preheader.split.us, label %.preheader.split

.preheader.split.us:                              ; preds = %.preheader, %15
  %.023.us = phi i64 [ %17, %15 ], [ 0, %.preheader ]
  %8 = getelementptr inbounds nuw double, ptr %5, i64 %.023.us
  %9 = load double, ptr %8, align 8, !tbaa !26
  %10 = fmul double %9, -2.000000e+00
  %.not.us = icmp eq i64 %.023.us, 0
  br i1 %.not.us, label %15, label %11

11:                                               ; preds = %.preheader.split.us
  %12 = getelementptr i8, ptr %8, i64 -8
  %13 = load double, ptr %12, align 8, !tbaa !26
  %14 = fadd double %10, %13
  br label %15

15:                                               ; preds = %11, %.preheader.split.us
  %.021.us = phi double [ %14, %11 ], [ %10, %.preheader.split.us ]
  %16 = getelementptr inbounds nuw double, ptr %6, i64 %.023.us
  store double %.021.us, ptr %16, align 8, !tbaa !26
  %17 = add nuw nsw i64 %.023.us, 1
  %exitcond26.not = icmp eq i64 %17, 5
  br i1 %exitcond26.not, label %.split.us, label %.preheader.split.us

.preheader.split:                                 ; preds = %.preheader, %26
  %.023 = phi i64 [ %31, %26 ], [ 0, %.preheader ]
  %18 = add nuw nsw i64 %.023, %7
  %19 = getelementptr inbounds nuw double, ptr %5, i64 %18
  %20 = load double, ptr %19, align 8, !tbaa !26
  %21 = fmul double %20, -2.000000e+00
  %.not = icmp eq i64 %.023, 0
  br i1 %.not, label %26, label %22

22:                                               ; preds = %.preheader.split
  %23 = getelementptr i8, ptr %19, i64 -8
  %24 = load double, ptr %23, align 8, !tbaa !26
  %25 = fadd double %21, %24
  br label %26

26:                                               ; preds = %22, %.preheader.split
  %.021 = phi double [ %25, %22 ], [ %21, %.preheader.split ]
  %27 = getelementptr i8, ptr %19, i64 -40
  %28 = load double, ptr %27, align 8, !tbaa !26
  %29 = fadd double %.021, %28
  %30 = getelementptr inbounds nuw double, ptr %6, i64 %18
  store double %29, ptr %30, align 8, !tbaa !26
  %31 = add nuw nsw i64 %.023, 1
  %exitcond.not = icmp eq i64 %31, 5
  br i1 %exitcond.not, label %.split.us, label %.preheader.split

.split.us:                                        ; preds = %26, %15
  %32 = add nuw nsw i64 %.02024, 1
  %exitcond27.not = icmp eq i64 %32, 5
  br i1 %exitcond27.not, label %33, label %.preheader

33:                                               ; preds = %.split.us
  ret i32 0
}